; Function Attrs: nounwind uwtable
define internal i32 @_handle_finalize(i32 noundef %0, i32 noundef %1, ptr readnone captures(none) %2) #0 {
  %4 = tail call i32 @slurm_get_log_level() #8
  %5 = icmp sgt i32 %4, 6
  br i1 %5, label %6, label %7

6:                                                ; preds = %3
  tail call void (i32, ptr, ...) @slurm_log_var(i32 noundef 7, ptr noundef nonnull @.str.42, ptr noundef nonnull @plugin_type, ptr noundef nonnull @__func__._handle_finalize) #8
  br label %7

7:                                                ; preds = %6, %3
  %8 = tail call ptr @client_resp_new() #8
  tail call void (ptr, ptr, ...) @slurm_xstrfmtcat(ptr noundef %8, ptr noundef nonnull @.str.43, i32 noundef 0) #8
  %9 = tail call i32 @client_resp_send(ptr noundef %8, i32 noundef %0) #8
  tail call void @client_resp_free(ptr noundef %8) #8
  %10 = tail call i32 @slurm_get_log_level() #8
  %11 = icmp sgt i32 %10, 6
  br i1 %11, label %12, label %13

12:                                               ; preds = %7
  tail call void (i32, ptr, ...) @slurm_log_var(i32 noundef 7, ptr noundef nonnull @.str.44, ptr noundef nonnull @plugin_type, ptr noundef nonnull @__func__._handle_finalize) #8
  br label %13

13:                                               ; preds = %12, %7
  %14 = tail call i32 @shutdown(i32 noundef %0, i32 noundef 2) #8
  %15 = tail call i32 @close(i32 noundef %0) #8
  tail call void @task_finalize(i32 noundef %1) #8
  ret i32 %9
}